target datalayout = "e-m:e-p270:32:32-p271:32:32-p272:64:64-i64:64-i128:128-f80:128-n8:16:32:64-S128"
target triple = "x86_64-pc-linux-gnu"

%struct.pmix_list_t = type { %struct.pmix_object_t, %struct.pmix_list_item_t, i64 }
%struct.pmix_object_t = type { %union.pthread_mutex_t, ptr, i32, %struct.pmix_tma }
%union.pthread_mutex_t = type { %struct.__pthread_mutex_s }
%struct.__pthread_mutex_s = type { i32, i32, i32, i32, i32, i16, i16, %struct.__pthread_internal_list }
%struct.__pthread_internal_list = type { ptr, ptr }
%struct.pmix_tma = type { ptr, ptr, ptr, ptr, ptr, ptr, ptr, ptr }
%struct.pmix_list_item_t = type { %struct.pmix_object_t, ptr, ptr, i32 }
%struct.pmix_proc = type { [256 x i8], i32 }
%struct.pmix_data_buffer = type { ptr, ptr, ptr, i64, i64 }
%struct.prte_job_t = type { %struct.pmix_list_item_t, i32, ptr, ptr, [256 x i8], ptr, i32, i32, ptr, ptr, i32, i32, i32, i32, ptr, ptr, ptr, i32, i32, i32, i32, i32, i32, i32, %struct.pmix_proc, i32, i16, %struct.pmix_list_t, %struct.pmix_data_buffer, %struct.pmix_list_t, [256 x i8], i32, ptr, %struct.pmix_cli_result_t }
%struct.pmix_cli_result_t = type { %struct.pmix_object_t, %struct.pmix_list_t, ptr }
%struct.pmix_pointer_array_t = type { %struct.pmix_object_t, i32, i32, i32, i32, i32, ptr, ptr }
%struct.prte_app_context_t = type { %struct.pmix_object_t, ptr, i32, ptr, i32, %struct.pmix_pointer_array_t, i32, i32, ptr, ptr, ptr, i8, %struct.pmix_list_t, %struct.pmix_cli_result_t }

@.str.80 = private unnamed_addr constant [4 x i8] c"PWD\00", align 1

; Function Attrs: nounwind uwtable
define internal i32 @setup_path(ptr noundef %0, ptr noundef %1) #0 {
  %3 = alloca i32, align 4
  %4 = alloca ptr, align 8
  %5 = alloca ptr, align 8
  %6 = alloca i32, align 4
  %7 = alloca [4096 x i8], align 16
  %8 = alloca ptr, align 8
  %9 = alloca i8, align 1
  %10 = alloca ptr, align 8
  %11 = alloca i32, align 4
  store ptr %0, ptr %4, align 8, !tbaa !10
  store ptr %1, ptr %5, align 8, !tbaa !42
  call void @llvm.lifetime.start.p0(i64 4, ptr %6) #13
  store i32 0, ptr %6, align 4, !tbaa !31
  call void @llvm.lifetime.start.p0(i64 4096, ptr %7) #13
  call void @llvm.lifetime.start.p0(i64 8, ptr %8) #13
  call void @llvm.lifetime.start.p0(i64 1, ptr %9) #13
  store i8 0, ptr %9, align 1, !tbaa !168
  call void @llvm.lifetime.start.p0(i64 8, ptr %10) #13
  %12 = load ptr, ptr %4, align 8, !tbaa !10
  %13 = getelementptr inbounds nuw %struct.prte_app_context_t, ptr %12, i32 0, i32 12
  %14 = call zeroext i1 @prte_get_attribute(ptr noundef %13, i16 noundef zeroext 6, ptr noundef null, i16 noundef zeroext 1)
  br i1 %14, label %15, label %43

15:                                               ; preds = %2
  %16 = load ptr, ptr %4, align 8, !tbaa !10
  %17 = getelementptr inbounds nuw %struct.prte_app_context_t, ptr %16, i32 0, i32 1
  %18 = load ptr, ptr %17, align 8, !tbaa !235
  store ptr %18, ptr %10, align 8, !tbaa !10
  %19 = load ptr, ptr %10, align 8, !tbaa !10
  %20 = getelementptr inbounds nuw %struct.prte_job_t, ptr %19, i32 0, i32 5
  %21 = load ptr, ptr %20, align 8, !tbaa !236
  store ptr %21, ptr %8, align 8, !tbaa !8
  %22 = load ptr, ptr %8, align 8, !tbaa !8
  %23 = icmp eq ptr null, %22
  br i1 %23, label %24, label %25

24:                                               ; preds = %15
  store i32 -1, ptr %3, align 4
  store i32 1, ptr %11, align 4
  br label %73

25:                                               ; preds = %15
  %26 = load ptr, ptr %8, align 8, !tbaa !8
  %27 = call i32 @chdir(ptr noundef %26) #13
  %28 = icmp ne i32 0, %27
  br i1 %28, label %29, label %30

29:                                               ; preds = %25
  store i32 -1, ptr %3, align 4
  store i32 1, ptr %11, align 4
  br label %73

30:                                               ; preds = %25
  %31 = getelementptr inbounds [4096 x i8], ptr %7, i64 0, i64 0
  %32 = call ptr @getcwd(ptr noundef %31, i64 noundef 4096) #13
  %33 = icmp eq ptr null, %32
  br i1 %33, label %34, label %35

34:                                               ; preds = %30
  store i32 -2, ptr %3, align 4
  store i32 1, ptr %11, align 4
  br label %73

35:                                               ; preds = %30
  %36 = getelementptr inbounds [4096 x i8], ptr %7, i64 0, i64 0
  %37 = call noalias ptr @strdup(ptr noundef %36) #13
  %38 = load ptr, ptr %5, align 8, !tbaa !42
  store ptr %37, ptr %38, align 8, !tbaa !8
  %39 = getelementptr inbounds [4096 x i8], ptr %7, i64 0, i64 0
  %40 = load ptr, ptr %4, align 8, !tbaa !10
  %41 = getelementptr inbounds nuw %struct.prte_app_context_t, ptr %40, i32 0, i32 9
  %42 = call i32 @PMIx_Setenv(ptr noundef @.str.80, ptr noundef %39, i1 noundef zeroext true, ptr noundef %41)
  br label %70

43:                                               ; preds = %2
  %44 = load ptr, ptr %4, align 8, !tbaa !10
  %45 = getelementptr inbounds nuw %struct.prte_app_context_t, ptr %44, i32 0, i32 12
  %46 = call zeroext i1 @prte_get_attribute(ptr noundef %45, i16 noundef zeroext 5, ptr noundef null, i16 noundef zeroext 1)
  br i1 %46, label %47, label %48

47:                                               ; preds = %43
  store i8 1, ptr %9, align 1, !tbaa !168
  br label %48

48:                                               ; preds = %47, %43
  %49 = load ptr, ptr %4, align 8, !tbaa !10
  %50 = getelementptr inbounds nuw %struct.prte_app_context_t, ptr %49, i32 0, i32 10
  %51 = load i8, ptr %9, align 1, !tbaa !168, !range !73, !noundef !74
  %52 = trunc i8 %51 to i1
  %53 = call i32 @pmix_util_check_context_cwd(ptr noundef %50, i1 noundef zeroext true, i1 noundef zeroext %52)
  store i32 %53, ptr %6, align 4, !tbaa !31
  %54 = load i32, ptr %6, align 4, !tbaa !31
  %55 = icmp ne i32 0, %54
  br i1 %55, label %56, label %57

56:                                               ; preds = %48
  br label %71

57:                                               ; preds = %48
  %58 = getelementptr inbounds [4096 x i8], ptr %7, i64 0, i64 0
  %59 = call ptr @getcwd(ptr noundef %58, i64 noundef 4096) #13
  %60 = icmp eq ptr null, %59
  br i1 %60, label %61, label %62

61:                                               ; preds = %57
  store i32 -2, ptr %3, align 4
  store i32 1, ptr %11, align 4
  br label %73

62:                                               ; preds = %57
  %63 = getelementptr inbounds [4096 x i8], ptr %7, i64 0, i64 0
  %64 = call noalias ptr @strdup(ptr noundef %63) #13
  %65 = load ptr, ptr %5, align 8, !tbaa !42
  store ptr %64, ptr %65, align 8, !tbaa !8
  %66 = getelementptr inbounds [4096 x i8], ptr %7, i64 0, i64 0
  %67 = load ptr, ptr %4, align 8, !tbaa !10
  %68 = getelementptr inbounds nuw %struct.prte_app_context_t, ptr %67, i32 0, i32 9
  %69 = call i32 @PMIx_Setenv(ptr noundef @.str.80, ptr noundef %66, i1 noundef zeroext true, ptr noundef %68)
  br label %70

70:                                               ; preds = %62, %35
  br label %71

71:                                               ; preds = %70, %56
  %72 = load i32, ptr %6, align 4, !tbaa !31
  store i32 %72, ptr %3, align 4
  store i32 1, ptr %11, align 4
  br label %73

73:                                               ; preds = %71, %61, %34, %29, %24
  call void @llvm.lifetime.end.p0(i64 8, ptr %10) #13
  call void @llvm.lifetime.end.p0(i64 1, ptr %9) #13
  call void @llvm.lifetime.end.p0(i64 8, ptr %8) #13
  call void @llvm.lifetime.end.p0(i64 4096, ptr %7) #13
  call void @llvm.lifetime.end.p0(i64 4, ptr %6) #13
  %74 = load i32, ptr %3, align 4
  ret i32 %74
}